target datalayout = "e-m:e-p270:32:32-p271:32:32-p272:64:64-i64:64-i128:128-f80:128-n8:16:32:64-S128"
target triple = "x86_64-pc-linux-gnu"

@reftable_malloc_ptr = internal global ptr null, align 8
@reftable_realloc_ptr = internal global ptr null, align 8
@reftable_free_ptr = internal global ptr null, align 8
@.str = private unnamed_addr constant [27 x i8] c"size_t overflow: %lu * %lu\00", align 1

; Function Attrs: nounwind uwtable
define dso_local ptr @reftable_malloc(i64 noundef %0) #0 {
  %2 = alloca ptr, align 8
  %3 = alloca i64, align 8
  store i64 %0, ptr %3, align 8, !tbaa !4
  %4 = load i64, ptr %3, align 8, !tbaa !4
  %5 = icmp ne i64 %4, 0
  br i1 %5, label %7, label %6

6:                                                ; preds = %1
  store ptr null, ptr %2, align 8
  br label %17

7:                                                ; preds = %1
  %8 = load ptr, ptr @reftable_malloc_ptr, align 8, !tbaa !8
  %9 = icmp ne ptr %8, null
  br i1 %9, label %10, label %14

10:                                               ; preds = %7
  %11 = load ptr, ptr @reftable_malloc_ptr, align 8, !tbaa !8
  %12 = load i64, ptr %3, align 8, !tbaa !4
  %13 = call ptr %11(i64 noundef %12)
  store ptr %13, ptr %2, align 8
  br label %17

14:                                               ; preds = %7
  %15 = load i64, ptr %3, align 8, !tbaa !4
  %16 = call noalias ptr @malloc(i64 noundef %15) #11
  store ptr %16, ptr %2, align 8
  br label %17

17:                                               ; preds = %14, %10, %6
  %18 = load ptr, ptr %2, align 8
  ret ptr %18
}

; Function Attrs: nounwind uwtable
define dso_local ptr @reftable_realloc(ptr noundef %0, i64 noundef %1) #0 {
  %3 = alloca ptr, align 8
  %4 = alloca ptr, align 8
  %5 = alloca i64, align 8
  store ptr %0, ptr %4, align 8, !tbaa !8
  store i64 %1, ptr %5, align 8, !tbaa !4
  %6 = load i64, ptr %5, align 8, !tbaa !4
  %7 = icmp ne i64 %6, 0
  br i1 %7, label %10, label %8

8:                                                ; preds = %2
  %9 = load ptr, ptr %4, align 8, !tbaa !8
  call void @reftable_free(ptr noundef %9)
  store ptr null, ptr %3, align 8
  br label %22

10:                                               ; preds = %2
  %11 = load ptr, ptr @reftable_realloc_ptr, align 8, !tbaa !8
  %12 = icmp ne ptr %11, null
  br i1 %12, label %13, label %18

13:                                               ; preds = %10
  %14 = load ptr, ptr @reftable_realloc_ptr, align 8, !tbaa !8
  %15 = load ptr, ptr %4, align 8, !tbaa !8
  %16 = load i64, ptr %5, align 8, !tbaa !4
  %17 = call ptr %14(ptr noundef %15, i64 noundef %16)
  store ptr %17, ptr %3, align 8
  br label %22

18:                                               ; preds = %10
  %19 = load ptr, ptr %4, align 8, !tbaa !8
  %20 = load i64, ptr %5, align 8, !tbaa !4
  %21 = call ptr @realloc(ptr noundef %19, i64 noundef %20) #12
  store ptr %21, ptr %3, align 8
  br label %22

22:                                               ; preds = %18, %13, %8
  %23 = load ptr, ptr %3, align 8
  ret ptr %23
}

; Function Attrs: inlinehint nounwind uwtable
define internal i64 @st_mult(i64 noundef %0, i64 noundef %1) #8 {
  %3 = alloca i64, align 8
  %4 = alloca i64, align 8
  store i64 %0, ptr %3, align 8, !tbaa !4
  store i64 %1, ptr %4, align 8, !tbaa !4
  %5 = load i64, ptr %3, align 8, !tbaa !4
  %6 = icmp ne i64 %5, 0
  br i1 %6, label %7, label %15

7:                                                ; preds = %2
  %8 = load i64, ptr %4, align 8, !tbaa !4
  %9 = load i64, ptr %3, align 8, !tbaa !4
  %10 = udiv i64 -1, %9
  %11 = icmp ugt i64 %8, %10
  br i1 %11, label %12, label %15

12:                                               ; preds = %7
  %13 = load i64, ptr %3, align 8, !tbaa !4
  %14 = load i64, ptr %4, align 8, !tbaa !4
  call void (ptr, ...) @die(ptr noundef @.str, i64 noundef %13, i64 noundef %14) #16
  unreachable

15:                                               ; preds = %7, %2
  %16 = load i64, ptr %3, align 8, !tbaa !4
  %17 = load i64, ptr %4, align 8, !tbaa !4
  %18 = mul i64 %16, %17
  ret i64 %18
}

; Function Attrs: nounwind uwtable
define dso_local void @reftable_free(ptr noundef %0) #0 {
  %2 = alloca ptr, align 8
  store ptr %0, ptr %2, align 8, !tbaa !8
  %3 = load ptr, ptr @reftable_free_ptr, align 8, !tbaa !8
  %4 = icmp ne ptr %3, null
  br i1 %4, label %5, label %8

5:                                                ; preds = %1
  %6 = load ptr, ptr @reftable_free_ptr, align 8, !tbaa !8
  %7 = load ptr, ptr %2, align 8, !tbaa !8
  call void %6(ptr noundef %7)
  br label %10

8:                                                ; preds = %1
  %9 = load ptr, ptr %2, align 8, !tbaa !8
  call void @free(ptr noundef %9) #13
  br label %10

10:                                               ; preds = %8, %5
  ret void
}

; Function Attrs: nounwind uwtable
define dso_local ptr @reftable_strdup(ptr noundef %0) #0 {
  %2 = alloca ptr, align 8
  %3 = alloca ptr, align 8
  %4 = alloca i64, align 8
  %5 = alloca ptr, align 8
  %6 = alloca i32, align 4
  store ptr %0, ptr %3, align 8, !tbaa !10
  call void @llvm.lifetime.start.p0(i64 8, ptr %4) #13
  %7 = load ptr, ptr %3, align 8, !tbaa !10
  %8 = call i64 @strlen(ptr noundef %7) #14
  store i64 %8, ptr %4, align 8, !tbaa !4
  call void @llvm.lifetime.start.p0(i64 8, ptr %5) #13
  %9 = load i64, ptr %4, align 8, !tbaa !4
  %10 = add i64 %9, 1
  %11 = call ptr @reftable_malloc(i64 noundef %10)
  store ptr %11, ptr %5, align 8, !tbaa !10
  %12 = load ptr, ptr %5, align 8, !tbaa !10
  %13 = icmp ne ptr %12, null
  br i1 %13, label %15, label %14

14:                                               ; preds = %1
  store ptr null, ptr %2, align 8
  store i32 1, ptr %6, align 4
  br label %21

15:                                               ; preds = %1
  %16 = load ptr, ptr %5, align 8, !tbaa !10
  %17 = load ptr, ptr %3, align 8, !tbaa !10
  %18 = load i64, ptr %4, align 8, !tbaa !4
  %19 = add i64 %18, 1
  call void @llvm.memcpy.p0.p0.i64(ptr align 1 %16, ptr align 1 %17, i64 %19, i1 false)
  %20 = load ptr, ptr %5, align 8, !tbaa !10
  store ptr %20, ptr %2, align 8
  store i32 1, ptr %6, align 4
  br label %21

21:                                               ; preds = %15, %14
  call void @llvm.lifetime.end.p0(i64 8, ptr %5) #13
  call void @llvm.lifetime.end.p0(i64 8, ptr %4) #13
  %22 = load ptr, ptr %2, align 8
  ret ptr %22
}

; Function Attrs: inlinehint nounwind uwtable
define internal ptr @reftable_alloc_grow(ptr noundef %0, i64 noundef %1, i64 noundef %2, ptr noundef %3) #8 {
  %5 = alloca ptr, align 8
  %6 = alloca ptr, align 8
  %7 = alloca i64, align 8
  %8 = alloca i64, align 8
  %9 = alloca ptr, align 8
  %10 = alloca ptr, align 8
  %11 = alloca i64, align 8
  %12 = alloca i32, align 4
  store ptr %0, ptr %6, align 8, !tbaa !8
  store i64 %1, ptr %7, align 8, !tbaa !4
  store i64 %2, ptr %8, align 8, !tbaa !4
  store ptr %3, ptr %9, align 8, !tbaa !22
  call void @llvm.lifetime.start.p0(i64 8, ptr %10) #13
  call void @llvm.lifetime.start.p0(i64 8, ptr %11) #13
  %13 = load ptr, ptr %9, align 8, !tbaa !22
  %14 = load i64, ptr %13, align 8, !tbaa !4
  %15 = mul i64 %14, 2
  %16 = add i64 %15, 1
  store i64 %16, ptr %11, align 8, !tbaa !4
  %17 = load i64, ptr %11, align 8, !tbaa !4
  %18 = load i64, ptr %7, align 8, !tbaa !4
  %19 = icmp ult i64 %17, %18
  br i1 %19, label %20, label %22

20:                                               ; preds = %4
  %21 = load i64, ptr %7, align 8, !tbaa !4
  store i64 %21, ptr %11, align 8, !tbaa !4
  br label %22

22:                                               ; preds = %20, %4
  %23 = load ptr, ptr %6, align 8, !tbaa !8
  %24 = load i64, ptr %8, align 8, !tbaa !4
  %25 = load i64, ptr %11, align 8, !tbaa !4
  %26 = call i64 @st_mult(i64 noundef %24, i64 noundef %25)
  %27 = call ptr @reftable_realloc(ptr noundef %23, i64 noundef %26)
  store ptr %27, ptr %10, align 8, !tbaa !8
  %28 = load ptr, ptr %10, align 8, !tbaa !8
  %29 = icmp ne ptr %28, null
  br i1 %29, label %32, label %30

30:                                               ; preds = %22
  %31 = load ptr, ptr %6, align 8, !tbaa !8
  store ptr %31, ptr %5, align 8
  store i32 1, ptr %12, align 4
  br label %36

32:                                               ; preds = %22
  %33 = load i64, ptr %11, align 8, !tbaa !4
  %34 = load ptr, ptr %9, align 8, !tbaa !22
  store i64 %33, ptr %34, align 8, !tbaa !4
  %35 = load ptr, ptr %10, align 8, !tbaa !8
  store ptr %35, ptr %5, align 8
  store i32 1, ptr %12, align 4
  br label %36

36:                                               ; preds = %32, %30
  call void @llvm.lifetime.end.p0(i64 8, ptr %11) #13
  call void @llvm.lifetime.end.p0(i64 8, ptr %10) #13
  %37 = load ptr, ptr %5, align 8
  ret ptr %37
}

; Function Attrs: nounwind uwtable
define dso_local ptr @parse_names(ptr noundef %0, i32 noundef %1) #0 {
  %3 = alloca ptr, align 8
  %4 = alloca ptr, align 8
  %5 = alloca i32, align 4
  %6 = alloca ptr, align 8
  %7 = alloca i64, align 8
  %8 = alloca i64, align 8
  %9 = alloca ptr, align 8
  %10 = alloca ptr, align 8
  %11 = alloca ptr, align 8
  %12 = alloca i32, align 4
  %13 = alloca i64, align 8
  store ptr %0, ptr %4, align 8, !tbaa !10
  store i32 %1, ptr %5, align 4, !tbaa !20
  call void @llvm.lifetime.start.p0(i64 8, ptr %6) #13
  store ptr null, ptr %6, align 8, !tbaa !28
  call void @llvm.lifetime.start.p0(i64 8, ptr %7) #13
  store i64 0, ptr %7, align 8, !tbaa !4
  call void @llvm.lifetime.start.p0(i64 8, ptr %8) #13
  store i64 0, ptr %8, align 8, !tbaa !4
  call void @llvm.lifetime.start.p0(i64 8, ptr %9) #13
  %14 = load ptr, ptr %4, align 8, !tbaa !10
  store ptr %14, ptr %9, align 8, !tbaa !10
  call void @llvm.lifetime.start.p0(i64 8, ptr %10) #13
  %15 = load ptr, ptr %4, align 8, !tbaa !10
  %16 = load i32, ptr %5, align 4, !tbaa !20
  %17 = sext i32 %16 to i64
  %18 = getelementptr inbounds i8, ptr %15, i64 %17
  store ptr %18, ptr %10, align 8, !tbaa !10
  br label %19

19:                                               ; preds = %74, %2
  %20 = load ptr, ptr %9, align 8, !tbaa !10
  %21 = load ptr, ptr %10, align 8, !tbaa !10
  %22 = icmp ult ptr %20, %21
  br i1 %22, label %23, label %75

23:                                               ; preds = %19
  call void @llvm.lifetime.start.p0(i64 8, ptr %11) #13
  %24 = load ptr, ptr %9, align 8, !tbaa !10
  %25 = call ptr @strchr(ptr noundef %24, i32 noundef 10) #14
  store ptr %25, ptr %11, align 8, !tbaa !10
  %26 = load ptr, ptr %11, align 8, !tbaa !10
  %27 = icmp ne ptr %26, null
  br i1 %27, label %28, label %34

28:                                               ; preds = %23
  %29 = load ptr, ptr %11, align 8, !tbaa !10
  %30 = load ptr, ptr %10, align 8, !tbaa !10
  %31 = icmp ult ptr %29, %30
  br i1 %31, label %32, label %34

32:                                               ; preds = %28
  %33 = load ptr, ptr %11, align 8, !tbaa !10
  store i8 0, ptr %33, align 1, !tbaa !19
  br label %36

34:                                               ; preds = %28, %23
  %35 = load ptr, ptr %10, align 8, !tbaa !10
  store ptr %35, ptr %11, align 8, !tbaa !10
  br label %36

36:                                               ; preds = %34, %32
  %37 = load ptr, ptr %9, align 8, !tbaa !10
  %38 = load ptr, ptr %11, align 8, !tbaa !10
  %39 = icmp ult ptr %37, %38
  br i1 %39, label %40, label %69

40:                                               ; preds = %36
  %41 = load i64, ptr %8, align 8, !tbaa !4
  %42 = add i64 %41, 1
  %43 = load i64, ptr %7, align 8, !tbaa !4
  %44 = icmp ugt i64 %42, %43
  br i1 %44, label %45, label %55

45:                                               ; preds = %40
  %46 = load ptr, ptr %6, align 8, !tbaa !28
  %47 = load i64, ptr %8, align 8, !tbaa !4
  %48 = add i64 %47, 1
  %49 = call ptr @reftable_alloc_grow(ptr noundef %46, i64 noundef %48, i64 noundef 8, ptr noundef %7)
  store ptr %49, ptr %6, align 8, !tbaa !28
  %50 = load i64, ptr %8, align 8, !tbaa !4
  %51 = add i64 %50, 1
  %52 = load i64, ptr %7, align 8, !tbaa !4
  %53 = icmp ugt i64 %51, %52
  br i1 %53, label %54, label %55

54:                                               ; preds = %45
  store i32 4, ptr %12, align 4
  br label %72

55:                                               ; preds = %45, %40
  %56 = load ptr, ptr %9, align 8, !tbaa !10
  %57 = call ptr @reftable_strdup(ptr noundef %56)
  %58 = load ptr, ptr %6, align 8, !tbaa !28
  %59 = load i64, ptr %8, align 8, !tbaa !4
  %60 = getelementptr inbounds nuw ptr, ptr %58, i64 %59
  store ptr %57, ptr %60, align 8, !tbaa !10
  %61 = load ptr, ptr %6, align 8, !tbaa !28
  %62 = load i64, ptr %8, align 8, !tbaa !4
  %63 = add i64 %62, 1
  store i64 %63, ptr %8, align 8, !tbaa !4
  %64 = getelementptr inbounds nuw ptr, ptr %61, i64 %62
  %65 = load ptr, ptr %64, align 8, !tbaa !10
  %66 = icmp ne ptr %65, null
  br i1 %66, label %68, label %67

67:                                               ; preds = %55
  store i32 4, ptr %12, align 4
  br label %72

68:                                               ; preds = %55
  br label %69

69:                                               ; preds = %68, %36
  %70 = load ptr, ptr %11, align 8, !tbaa !10
  %71 = getelementptr inbounds i8, ptr %70, i64 1
  store ptr %71, ptr %9, align 8, !tbaa !10
  store i32 0, ptr %12, align 4
  br label %72

72:                                               ; preds = %67, %54, %69
  call void @llvm.lifetime.end.p0(i64 8, ptr %11) #13
  %73 = load i32, ptr %12, align 4
  switch i32 %73, label %111 [
    i32 0, label %74
    i32 4, label %95
  ]

74:                                               ; preds = %72
  br label %19, !llvm.loop !32

75:                                               ; preds = %19
  %76 = load i64, ptr %8, align 8, !tbaa !4
  %77 = add i64 %76, 1
  %78 = load i64, ptr %7, align 8, !tbaa !4
  %79 = icmp ugt i64 %77, %78
  br i1 %79, label %80, label %90

80:                                               ; preds = %75
  %81 = load ptr, ptr %6, align 8, !tbaa !28
  %82 = load i64, ptr %8, align 8, !tbaa !4
  %83 = add i64 %82, 1
  %84 = call ptr @reftable_alloc_grow(ptr noundef %81, i64 noundef %83, i64 noundef 8, ptr noundef %7)
  store ptr %84, ptr %6, align 8, !tbaa !28
  %85 = load i64, ptr %8, align 8, !tbaa !4
  %86 = add i64 %85, 1
  %87 = load i64, ptr %7, align 8, !tbaa !4
  %88 = icmp ugt i64 %86, %87
  br i1 %88, label %89, label %90

89:                                               ; preds = %80
  br label %95

90:                                               ; preds = %80, %75
  %91 = load ptr, ptr %6, align 8, !tbaa !28
  %92 = load i64, ptr %8, align 8, !tbaa !4
  %93 = getelementptr inbounds nuw ptr, ptr %91, i64 %92
  store ptr null, ptr %93, align 8, !tbaa !10
  %94 = load ptr, ptr %6, align 8, !tbaa !28
  store ptr %94, ptr %3, align 8
  store i32 1, ptr %12, align 4
  br label %111

95:                                               ; preds = %72, %89
  call void @llvm.lifetime.start.p0(i64 8, ptr %13) #13
  store i64 0, ptr %13, align 8, !tbaa !4
  br label %96

96:                                               ; preds = %106, %95
  %97 = load i64, ptr %13, align 8, !tbaa !4
  %98 = load i64, ptr %8, align 8, !tbaa !4
  %99 = icmp ult i64 %97, %98
  br i1 %99, label %101, label %100

100:                                              ; preds = %96
  store i32 5, ptr %12, align 4
  call void @llvm.lifetime.end.p0(i64 8, ptr %13) #13
  br label %109

101:                                              ; preds = %96
  %102 = load ptr, ptr %6, align 8, !tbaa !28
  %103 = load i64, ptr %13, align 8, !tbaa !4
  %104 = getelementptr inbounds nuw ptr, ptr %102, i64 %103
  %105 = load ptr, ptr %104, align 8, !tbaa !10
  call void @reftable_free(ptr noundef %105)
  br label %106

106:                                              ; preds = %101
  %107 = load i64, ptr %13, align 8, !tbaa !4
  %108 = add i64 %107, 1
  store i64 %108, ptr %13, align 8, !tbaa !4
  br label %96, !llvm.loop !33

109:                                              ; preds = %100
  %110 = load ptr, ptr %6, align 8, !tbaa !28
  call void @reftable_free(ptr noundef %110)
  store ptr null, ptr %3, align 8
  store i32 1, ptr %12, align 4
  br label %111

111:                                              ; preds = %109, %90, %72
  call void @llvm.lifetime.end.p0(i64 8, ptr %10) #13
  call void @llvm.lifetime.end.p0(i64 8, ptr %9) #13
  call void @llvm.lifetime.end.p0(i64 8, ptr %8) #13
  call void @llvm.lifetime.end.p0(i64 8, ptr %7) #13
  call void @llvm.lifetime.end.p0(i64 8, ptr %6) #13
  %112 = load ptr, ptr %3, align 8
  ret ptr %112
}