; Function Attrs: nounwind uwtable
define dso_local ptr @parse_names(ptr noundef %0, i32 noundef %1) local_unnamed_addr #0 {
  %3 = sext i32 %1 to i64
  %4 = getelementptr inbounds i8, ptr %0, i64 %3
  %5 = icmp sgt i32 %1, 0
  br i1 %5, label %.lr.ph, label %._crit_edge

.lr.ph:                                           ; preds = %2, %34
  %.040109 = phi ptr [ %35, %34 ], [ %0, %2 ]
  %.041108 = phi i64 [ %.142, %34 ], [ 0, %2 ]
  %.043107 = phi ptr [ %.144, %34 ], [ null, %2 ]
  %.076106 = phi i64 [ %.177, %34 ], [ 0, %2 ]
  %6 = tail call ptr @strchr(ptr noundef nonnull dereferenceable(1) %.040109, i32 noundef 10) #23
  %.not = icmp ne ptr %6, null
  %7 = icmp ult ptr %6, %4
  %or.cond = and i1 %.not, %7
  br i1 %or.cond, label %8, label %9

8:                                                ; preds = %.lr.ph
  store i8 0, ptr %6, align 1, !tbaa !14
  br label %9

9:                                                ; preds = %.lr.ph, %8
  %.038 = phi ptr [ %6, %8 ], [ %4, %.lr.ph ]
  %10 = icmp ult ptr %.040109, %.038
  br i1 %10, label %11, label %34

11:                                               ; preds = %9
  %12 = add i64 %.041108, 1
  %13 = icmp ugt i64 %12, %.076106
  br i1 %13, label %14, label %reftable_alloc_grow.exit.thread

14:                                               ; preds = %11
  %15 = shl i64 %.076106, 1
  %16 = or disjoint i64 %15, 1
  %spec.select.i = tail call i64 @llvm.umax.i64(i64 %16, i64 %12)
  %mul.ov.i.i = icmp ugt i64 %spec.select.i, 2305843009213693951
  br i1 %mul.ov.i.i, label %17, label %st_mult.exit.i

17:                                               ; preds = %14
  tail call void (ptr, ...) @die(ptr noundef nonnull @.str, i64 noundef range(i64 1, 9) 8, i64 noundef %spec.select.i) #24
  unreachable

st_mult.exit.i:                                   ; preds = %14
  %18 = shl nuw i64 %spec.select.i, 3
  %19 = load ptr, ptr @reftable_realloc_ptr, align 8, !tbaa !4
  %.not8.i.i = icmp eq ptr %19, null
  br i1 %.not8.i.i, label %22, label %20

20:                                               ; preds = %st_mult.exit.i
  %21 = tail call ptr %19(ptr noundef %.043107, i64 noundef %18) #20
  br label %reftable_realloc.exit.i

22:                                               ; preds = %st_mult.exit.i
  %23 = tail call ptr @realloc(ptr noundef %.043107, i64 noundef %18) #22
  br label %reftable_realloc.exit.i

reftable_realloc.exit.i:                          ; preds = %22, %20
  %.0.i.i = phi ptr [ %21, %20 ], [ %23, %22 ]
  %.not.i = icmp eq ptr %.0.i.i, null
  br i1 %.not.i, label %.thread, label %reftable_alloc_grow.exit.thread

reftable_alloc_grow.exit.thread:                  ; preds = %reftable_realloc.exit.i, %11
  %.278 = phi i64 [ %.076106, %11 ], [ %spec.select.i, %reftable_realloc.exit.i ]
  %.245 = phi ptr [ %.043107, %11 ], [ %.0.i.i, %reftable_realloc.exit.i ]
  %24 = tail call i64 @strlen(ptr noundef nonnull readonly dereferenceable(1) %.040109) #23
  %25 = add i64 %24, 1
  %.not.i.i53 = icmp eq i64 %25, 0
  br i1 %.not.i.i53, label %reftable_strdup.exit.thread, label %26

26:                                               ; preds = %reftable_alloc_grow.exit.thread
  %27 = load ptr, ptr @reftable_malloc_ptr, align 8, !tbaa !4
  %.not5.i.i = icmp eq ptr %27, null
  br i1 %.not5.i.i, label %30, label %28

28:                                               ; preds = %26
  %29 = tail call ptr %27(i64 noundef %25) #20
  br label %reftable_malloc.exit.i

30:                                               ; preds = %26
  %31 = tail call noalias ptr @malloc(i64 noundef %25) #21
  br label %reftable_malloc.exit.i

reftable_malloc.exit.i:                           ; preds = %30, %28
  %.0.i.i54 = phi ptr [ %29, %28 ], [ %31, %30 ]
  %.not.i55 = icmp eq ptr %.0.i.i54, null
  br i1 %.not.i55, label %reftable_strdup.exit.thread, label %reftable_strdup.exit

reftable_strdup.exit.thread:                      ; preds = %reftable_malloc.exit.i, %reftable_alloc_grow.exit.thread
  %32 = getelementptr inbounds nuw ptr, ptr %.245, i64 %.041108
  store ptr null, ptr %32, align 8, !tbaa !18
  br label %.thread

reftable_strdup.exit:                             ; preds = %reftable_malloc.exit.i
  tail call void @llvm.memcpy.p0.p0.i64(ptr nonnull align 1 %.0.i.i54, ptr nonnull readonly align 1 %.040109, i64 %25, i1 false)
  %33 = getelementptr inbounds nuw ptr, ptr %.245, i64 %.041108
  store ptr %.0.i.i54, ptr %33, align 8, !tbaa !18
  br label %34

34:                                               ; preds = %9, %reftable_strdup.exit
  %.177 = phi i64 [ %.278, %reftable_strdup.exit ], [ %.076106, %9 ]
  %.144 = phi ptr [ %.245, %reftable_strdup.exit ], [ %.043107, %9 ]
  %.142 = phi i64 [ %12, %reftable_strdup.exit ], [ %.041108, %9 ]
  %35 = getelementptr inbounds nuw i8, ptr %.038, i64 1
  %36 = icmp ult ptr %35, %4
  br i1 %36, label %.lr.ph, label %._crit_edge

._crit_edge:                                      ; preds = %34, %2
  %.076.lcssa = phi i64 [ 0, %2 ], [ %.177, %34 ]
  %.043.lcssa = phi ptr [ null, %2 ], [ %.144, %34 ]
  %.041.lcssa = phi i64 [ 0, %2 ], [ %.142, %34 ]
  %37 = add i64 %.041.lcssa, 1
  %38 = icmp ugt i64 %37, %.076.lcssa
  br i1 %38, label %39, label %reftable_alloc_grow.exit67.thread

39:                                               ; preds = %._crit_edge
  %40 = shl i64 %.076.lcssa, 1
  %41 = or disjoint i64 %40, 1
  %spec.select.i56 = tail call i64 @llvm.umax.i64(i64 %41, i64 %37)
  %mul.ov.i.i58 = icmp ugt i64 %spec.select.i56, 2305843009213693951
  br i1 %mul.ov.i.i58, label %42, label %st_mult.exit.i59

42:                                               ; preds = %39
  tail call void (ptr, ...) @die(ptr noundef nonnull @.str, i64 noundef range(i64 1, 9) 8, i64 noundef %spec.select.i56) #24
  unreachable

st_mult.exit.i59:                                 ; preds = %39
  %43 = shl nuw i64 %spec.select.i56, 3
  %44 = load ptr, ptr @reftable_realloc_ptr, align 8, !tbaa !4
  %.not8.i.i61 = icmp eq ptr %44, null
  br i1 %.not8.i.i61, label %47, label %45

45:                                               ; preds = %st_mult.exit.i59
  %46 = tail call ptr %44(ptr noundef %.043.lcssa, i64 noundef %43) #20
  br label %reftable_realloc.exit.i62

47:                                               ; preds = %st_mult.exit.i59
  %48 = tail call ptr @realloc(ptr noundef %.043.lcssa, i64 noundef %43) #22
  br label %reftable_realloc.exit.i62

reftable_realloc.exit.i62:                        ; preds = %47, %45
  %.0.i.i63 = phi ptr [ %46, %45 ], [ %48, %47 ]
  %.not.i64 = icmp eq ptr %.0.i.i63, null
  br i1 %.not.i64, label %.thread, label %reftable_alloc_grow.exit67.thread

reftable_alloc_grow.exit67.thread:                ; preds = %reftable_realloc.exit.i62, %._crit_edge
  %.5 = phi ptr [ %.043.lcssa, %._crit_edge ], [ %.0.i.i63, %reftable_realloc.exit.i62 ]
  %49 = getelementptr inbounds nuw ptr, ptr %.5, i64 %.041.lcssa
  store ptr null, ptr %49, align 8, !tbaa !18
  br label %reftable_free.exit

.thread:                                          ; preds = %reftable_realloc.exit.i, %reftable_realloc.exit.i62, %reftable_strdup.exit.thread
  %.4 = phi ptr [ %.245, %reftable_strdup.exit.thread ], [ %.043.lcssa, %reftable_realloc.exit.i62 ], [ %.043107, %reftable_realloc.exit.i ]
  %.3 = phi i64 [ %12, %reftable_strdup.exit.thread ], [ %.041.lcssa, %reftable_realloc.exit.i62 ], [ %.041108, %reftable_realloc.exit.i ]
  %.not115 = icmp eq i64 %.3, 0
  br i1 %.not115, label %._crit_edge114, label %.lr.ph113

._crit_edge114:                                   ; preds = %reftable_free.exit70, %.thread
  %50 = load ptr, ptr @reftable_free_ptr, align 8, !tbaa !4
  %.not.i68 = icmp eq ptr %50, null
  br i1 %.not.i68, label %52, label %51

51:                                               ; preds = %._crit_edge114
  tail call void %50(ptr noundef %.4) #20
  br label %reftable_free.exit

52:                                               ; preds = %._crit_edge114
  tail call void @free(ptr noundef %.4) #20
  br label %reftable_free.exit

.lr.ph113:                                        ; preds = %.thread, %reftable_free.exit70
  %.0112 = phi i64 [ %58, %reftable_free.exit70 ], [ 0, %.thread ]
  %53 = getelementptr inbounds nuw ptr, ptr %.4, i64 %.0112
  %54 = load ptr, ptr %53, align 8, !tbaa !18
  %55 = load ptr, ptr @reftable_free_ptr, align 8, !tbaa !4
  %.not.i69 = icmp eq ptr %55, null
  br i1 %.not.i69, label %57, label %56

56:                                               ; preds = %.lr.ph113
  tail call void %55(ptr noundef %54) #20
  br label %reftable_free.exit70

57:                                               ; preds = %.lr.ph113
  tail call void @free(ptr noundef %54) #20
  br label %reftable_free.exit70

reftable_free.exit70:                             ; preds = %56, %57
  %58 = add nuw i64 %.0112, 1
  %exitcond.not = icmp eq i64 %58, %.3
  br i1 %exitcond.not, label %._crit_edge114, label %.lr.ph113, !llvm.loop !23

reftable_free.exit:                               ; preds = %52, %51, %reftable_alloc_grow.exit67.thread
  %.039 = phi ptr [ %.5, %reftable_alloc_grow.exit67.thread ], [ null, %51 ], [ null, %52 ]
  ret ptr %.039
}